; Function Attrs: mustprogress uwtable
define void @_ZN2cv9videostab18ToFileMotionWriterC2ERKNSt7__cxx1112basic_stringIcSt11char_traitsIcESaIcEEENS_3PtrINS0_24ImageMotionEstimatorBaseEEE(ptr noundef nonnull align 8 dereferenceable(544) %0, ptr noundef nonnull align 8 dereferenceable(32) %1, ptr nocapture noundef readonly %2) unnamed_addr #3 align 2 personality ptr @__gxx_personality_v0 {
  %4 = alloca %"class.std::__cxx11::basic_string", align 8
  %5 = alloca %"class.std::allocator", align 1
  %6 = load ptr, ptr %2, align 8
  %7 = load ptr, ptr %6, align 8
  %8 = getelementptr inbounds i8, ptr %7, i64 24
  %9 = load ptr, ptr %8, align 8
  %10 = tail call noundef i32 %9(ptr noundef nonnull align 8 dereferenceable(12) %6)
  %11 = getelementptr inbounds i8, ptr %0, i64 8
  store i32 %10, ptr %11, align 8
  store ptr getelementptr inbounds inrange(-16, 48) (i8, ptr @_ZTVN2cv9videostab18ToFileMotionWriterE, i64 16), ptr %0, align 8
  %12 = getelementptr inbounds i8, ptr %0, i64 16
  tail call void @_ZNSt14basic_ofstreamIcSt11char_traitsIcEEC1Ev(ptr noundef nonnull align 8 dereferenceable(248) %12)
  %13 = getelementptr inbounds i8, ptr %0, i64 528
  %14 = load ptr, ptr %2, align 8
  store ptr %14, ptr %13, align 8
  %15 = getelementptr inbounds i8, ptr %0, i64 536
  %16 = getelementptr inbounds i8, ptr %2, i64 8
  %17 = load ptr, ptr %16, align 8
  store ptr %17, ptr %15, align 8
  %.not.i.i.i.i = icmp eq ptr %17, null
  br i1 %.not.i.i.i.i, label %_ZN2cv3PtrINS_9videostab24ImageMotionEstimatorBaseEEC2ERKS3_.exit, label %18

18:                                               ; preds = %3
  %19 = getelementptr inbounds i8, ptr %17, i64 8
  %20 = load i8, ptr @__libc_single_threaded, align 1
  %.not.i.i.i.i.i = icmp eq i8 %20, 0
  br i1 %.not.i.i.i.i.i, label %24, label %21

21:                                               ; preds = %18
  %22 = load i32, ptr %19, align 4
  %23 = add nsw i32 %22, 1
  store i32 %23, ptr %19, align 4
  br label %_ZN2cv3PtrINS_9videostab24ImageMotionEstimatorBaseEEC2ERKS3_.exit

24:                                               ; preds = %18
  %25 = atomicrmw volatile add ptr %19, i32 1 acq_rel, align 4
  br label %_ZN2cv3PtrINS_9videostab24ImageMotionEstimatorBaseEEC2ERKS3_.exit

_ZN2cv3PtrINS_9videostab24ImageMotionEstimatorBaseEEC2ERKS3_.exit: ; preds = %3, %21, %24
  %26 = tail call noundef ptr @_ZNKSt7__cxx1112basic_stringIcSt11char_traitsIcESaIcEE5c_strEv(ptr noundef nonnull align 8 dereferenceable(32) %1) #21
  invoke void @_ZNSt14basic_ofstreamIcSt11char_traitsIcEE4openEPKcSt13_Ios_Openmode(ptr noundef nonnull align 8 dereferenceable(248) %12, ptr noundef %26, i32 noundef 16)
          to label %27 unwind label %30

27:                                               ; preds = %_ZN2cv3PtrINS_9videostab24ImageMotionEstimatorBaseEEC2ERKS3_.exit
  %28 = invoke noundef zeroext i1 @_ZNSt14basic_ofstreamIcSt11char_traitsIcEE7is_openEv(ptr noundef nonnull align 8 dereferenceable(248) %12)
          to label %29 unwind label %30

29:                                               ; preds = %27
  br i1 %28, label %40, label %32

30:                                               ; preds = %27, %_ZN2cv3PtrINS_9videostab24ImageMotionEstimatorBaseEEC2ERKS3_.exit
  %31 = landingpad { ptr, i32 }
          cleanup
  br label %41

32:                                               ; preds = %29
  call void @_ZNSaIcEC1Ev(ptr noundef nonnull align 1 dereferenceable(1) %5) #21
  invoke void @_ZNSt7__cxx1112basic_stringIcSt11char_traitsIcESaIcEEC1EPKcRKS3_(ptr noundef nonnull align 8 dereferenceable(32) %4, ptr noundef nonnull @.str.7, ptr noundef nonnull align 1 dereferenceable(1) %5)
          to label %33 unwind label %35

33:                                               ; preds = %32
  invoke void @_ZN2cv5errorEiRKNSt7__cxx1112basic_stringIcSt11char_traitsIcESaIcEEEPKcS9_i(i32 noundef -215, ptr noundef nonnull align 8 dereferenceable(32) %4, ptr noundef nonnull @__func__._ZN2cv9videostab18ToFileMotionWriterC2ERKNSt7__cxx1112basic_stringIcSt11char_traitsIcESaIcEEENS_3PtrINS0_24ImageMotionEstimatorBaseEEE, ptr noundef nonnull @.str.1, i32 noundef 692) #22
          to label %34 unwind label %37

34:                                               ; preds = %33
  unreachable

35:                                               ; preds = %32
  %36 = landingpad { ptr, i32 }
          cleanup
  br label %39

37:                                               ; preds = %33
  %38 = landingpad { ptr, i32 }
          cleanup
  call void @_ZNSt7__cxx1112basic_stringIcSt11char_traitsIcESaIcEED1Ev(ptr noundef nonnull align 8 dereferenceable(32) %4) #21
  br label %39

39:                                               ; preds = %37, %35
  %.pn = phi { ptr, i32 } [ %38, %37 ], [ %36, %35 ]
  call void @_ZNSaIcED1Ev(ptr noundef nonnull align 1 dereferenceable(1) %5) #21
  br label %41

40:                                               ; preds = %29
  ret void

41:                                               ; preds = %39, %30
  %.pn.pn = phi { ptr, i32 } [ %.pn, %39 ], [ %31, %30 ]
  call void @_ZN2cv3PtrINS_9videostab24ImageMotionEstimatorBaseEED2Ev(ptr noundef nonnull align 8 dereferenceable(16) %13) #21
  call void @_ZNSt14basic_ofstreamIcSt11char_traitsIcEED1Ev(ptr noundef nonnull align 8 dereferenceable(248) %12) #21
  resume { ptr, i32 } %.pn.pn
}